target datalayout = "e-m:e-p270:32:32-p271:32:32-p272:64:64-i64:64-i128:128-f80:128-n8:16:32:64-S128"
target triple = "x86_64-pc-linux-gnu"

%struct.circuit_chain_key = type { ptr, i32 }

; Function Attrs: nounwind uwtable
define internal i32 @circuit_chain_hash(ptr noundef %0) #0 {
  %2 = alloca ptr, align 8
  %3 = alloca ptr, align 8
  %4 = alloca i32, align 4
  store ptr %0, ptr %2, align 8
  %5 = load ptr, ptr %2, align 8
  store ptr %5, ptr %3, align 8
  %6 = load ptr, ptr %3, align 8
  %7 = getelementptr inbounds %struct.circuit_chain_key, ptr %6, i32 0, i32 0
  %8 = load ptr, ptr %7, align 8
  %9 = ptrtoint ptr %8 to i64
  %10 = trunc i64 %9 to i32
  %11 = load ptr, ptr %3, align 8
  %12 = getelementptr inbounds %struct.circuit_chain_key, ptr %11, i32 0, i32 1
  %13 = load i32, ptr %12, align 8
  %14 = shl i32 %13, 16
  %15 = xor i32 %10, %14
  store i32 %15, ptr %4, align 4
  %16 = load i32, ptr %4, align 4
  ret i32 %16
}